target datalayout = "e-m:e-p270:32:32-p271:32:32-p272:64:64-i64:64-i128:128-f80:128-n8:16:32:64-S128"
target triple = "x86_64-pc-linux-gnu"

%struct.message = type { ptr, i32, i32, ptr, ptr, ptr, ptr, ptr, ptr, i64, i32, ptr, ptr, ptr, ptr, ptr, i8, i8, i8, i8, ptr }

@.str.14 = private unnamed_addr constant [93 x i8] c"Internal email parser error: message is pointer is NULL when trying to set disposition type\0A\00", align 1

; Function Attrs: nounwind uwtable
define void @messageSetDispositionType(ptr noundef %0, ptr noundef %1) #0 {
  %3 = alloca ptr, align 8
  %4 = alloca ptr, align 8
  store ptr %0, ptr %3, align 8
  store ptr %1, ptr %4, align 8
  %5 = load ptr, ptr %3, align 8
  %6 = icmp eq ptr %5, null
  br i1 %6, label %7, label %8

7:                                                ; preds = %2
  call void (ptr, ...) @cli_errmsg(ptr noundef @.str.14)
  br label %68

8:                                                ; preds = %2
  %9 = load ptr, ptr %3, align 8
  %10 = getelementptr inbounds %struct.message, ptr %9, i32 0, i32 5
  %11 = load ptr, ptr %10, align 8
  %12 = icmp ne ptr %11, null
  br i1 %12, label %13, label %17

13:                                               ; preds = %8
  %14 = load ptr, ptr %3, align 8
  %15 = getelementptr inbounds %struct.message, ptr %14, i32 0, i32 5
  %16 = load ptr, ptr %15, align 8
  call void @free(ptr noundef %16) #11
  br label %17

17:                                               ; preds = %13, %8
  %18 = load ptr, ptr %4, align 8
  %19 = icmp eq ptr %18, null
  br i1 %19, label %20, label %23

20:                                               ; preds = %17
  %21 = load ptr, ptr %3, align 8
  %22 = getelementptr inbounds %struct.message, ptr %21, i32 0, i32 5
  store ptr null, ptr %22, align 8
  br label %68

23:                                               ; preds = %17
  br label %24

24:                                               ; preds = %43, %23
  %25 = load ptr, ptr %4, align 8
  %26 = load i8, ptr %25, align 1
  %27 = sext i8 %26 to i32
  %28 = icmp ne i32 %27, 0
  br i1 %28, label %29, label %41

29:                                               ; preds = %24
  %30 = call ptr @__ctype_b_loc() #12
  %31 = load ptr, ptr %30, align 8
  %32 = load ptr, ptr %4, align 8
  %33 = load i8, ptr %32, align 1
  %34 = sext i8 %33 to i32
  %35 = sext i32 %34 to i64
  %36 = getelementptr inbounds i16, ptr %31, i64 %35
  %37 = load i16, ptr %36, align 2
  %38 = zext i16 %37 to i32
  %39 = and i32 %38, 8192
  %40 = icmp ne i32 %39, 0
  br label %41

41:                                               ; preds = %29, %24
  %42 = phi i1 [ false, %24 ], [ %40, %29 ]
  br i1 %42, label %43, label %46

43:                                               ; preds = %41
  %44 = load ptr, ptr %4, align 8
  %45 = getelementptr inbounds i8, ptr %44, i32 1
  store ptr %45, ptr %4, align 8
  br label %24

46:                                               ; preds = %41
  %47 = load ptr, ptr %4, align 8
  %48 = load i8, ptr %47, align 1
  %49 = icmp ne i8 %48, 0
  br i1 %49, label %50, label %65

50:                                               ; preds = %46
  %51 = load ptr, ptr %4, align 8
  %52 = call ptr @cli_safer_strdup(ptr noundef %51)
  %53 = load ptr, ptr %3, align 8
  %54 = getelementptr inbounds %struct.message, ptr %53, i32 0, i32 5
  store ptr %52, ptr %54, align 8
  %55 = load ptr, ptr %3, align 8
  %56 = getelementptr inbounds %struct.message, ptr %55, i32 0, i32 5
  %57 = load ptr, ptr %56, align 8
  %58 = icmp ne ptr %57, null
  br i1 %58, label %59, label %64

59:                                               ; preds = %50
  %60 = load ptr, ptr %3, align 8
  %61 = getelementptr inbounds %struct.message, ptr %60, i32 0, i32 5
  %62 = load ptr, ptr %61, align 8
  %63 = call i64 @strstrip(ptr noundef %62)
  br label %64

64:                                               ; preds = %59, %50
  br label %68

65:                                               ; preds = %46
  %66 = load ptr, ptr %3, align 8
  %67 = getelementptr inbounds %struct.message, ptr %66, i32 0, i32 5
  store ptr null, ptr %67, align 8
  br label %68

68:                                               ; preds = %65, %64, %20, %7
  ret void
}