; Function Attrs: nounwind uwtable
define void @messageSetDispositionType(ptr noundef %0, ptr noundef %1) local_unnamed_addr #2 {
  %3 = icmp eq ptr %0, null
  br i1 %3, label %4, label %5

4:                                                ; preds = %2
  tail call void (ptr, ...) @cli_errmsg(ptr noundef nonnull @.str.14) #21
  br label %27

5:                                                ; preds = %2
  %6 = getelementptr inbounds i8, ptr %0, i64 32
  %7 = load ptr, ptr %6, align 8
  %.not = icmp eq ptr %7, null
  br i1 %.not, label %9, label %8

8:                                                ; preds = %5
  tail call void @free(ptr noundef nonnull %7) #21
  br label %9

9:                                                ; preds = %8, %5
  %10 = icmp eq ptr %1, null
  br i1 %10, label %14, label %.preheader

.preheader:                                       ; preds = %9
  %11 = load i8, ptr %1, align 1
  %.not1924 = icmp eq i8 %11, 0
  br i1 %.not1924, label %._crit_edge, label %.lr.ph

.lr.ph:                                           ; preds = %.preheader
  %12 = tail call ptr @__ctype_b_loc() #22
  %13 = load ptr, ptr %12, align 8
  br label %15

14:                                               ; preds = %9
  store ptr null, ptr %6, align 8
  br label %27

15:                                               ; preds = %.lr.ph, %21
  %16 = phi i8 [ %11, %.lr.ph ], [ %23, %21 ]
  %.025 = phi ptr [ %1, %.lr.ph ], [ %22, %21 ]
  %17 = sext i8 %16 to i64
  %18 = getelementptr inbounds i16, ptr %13, i64 %17
  %19 = load i16, ptr %18, align 2
  %20 = and i16 %19, 8192
  %.not20 = icmp eq i16 %20, 0
  br i1 %.not20, label %.critedge, label %21

21:                                               ; preds = %15
  %22 = getelementptr inbounds i8, ptr %.025, i64 1
  %23 = load i8, ptr %22, align 1
  %.not19 = icmp eq i8 %23, 0
  br i1 %.not19, label %._crit_edge, label %15

.critedge:                                        ; preds = %15
  %24 = tail call ptr @cli_safer_strdup(ptr noundef nonnull %.025) #21
  store ptr %24, ptr %6, align 8
  %.not22 = icmp eq ptr %24, null
  br i1 %.not22, label %27, label %25

25:                                               ; preds = %.critedge
  %26 = tail call i64 @strstrip(ptr noundef nonnull %24) #21
  br label %27

._crit_edge:                                      ; preds = %21, %.preheader
  store ptr null, ptr %6, align 8
  br label %27

27:                                               ; preds = %.critedge, %25, %._crit_edge, %14, %4
  ret void
}